; Function Attrs: mustprogress uwtable
define noundef zeroext i1 @_ZN6google8protobuf2io7Printer8ValidateEbNS2_12PrintOptionsEN4absl12lts_2023080211FunctionRefIFNSt7__cxx1112basic_stringIcSt11char_traitsIcESaIcEEEvEEE(i1 noundef returned zeroext %cond, i64 %opts.coerce0, i8 %opts.coerce1, ptr %message.coerce0, ptr nocapture readonly %message.coerce1) local_unnamed_addr #3 align 2 personality ptr @__gxx_personality_v0 {
entry:
  %ref.tmp3 = alloca %"class.absl::lts_20230802::log_internal::LogMessageFatal", align 8
  %ref.tmp4 = alloca %"class.std::__cxx11::basic_string", align 8
  %0 = and i64 %opts.coerce0, 65536
  %tobool1.not = icmp ne i64 %0, 0
  %or.cond.not = select i1 %cond, i1 true, i1 %tobool1.not
  br i1 %or.cond.not, label %if.end10, label %if.else

if.else:                                          ; preds = %entry
  call void @_ZN4absl12lts_2023080212log_internal15LogMessageFatalC1EPKci(ptr noundef nonnull align 8 dereferenceable(16) %ref.tmp3, ptr noundef nonnull @.str.4, i32 noundef 291) #28
  invoke void %message.coerce1(ptr nonnull sret(%"class.std::__cxx11::basic_string") align 8 %ref.tmp4, ptr %message.coerce0)
          to label %invoke.cont5 unwind label %lpad

invoke.cont5:                                     ; preds = %if.else
  %call8 = invoke noundef nonnull align 8 dereferenceable(16) ptr @_ZN4absl12lts_2023080212log_internal10LogMessagelsERKNSt7__cxx1112basic_stringIcSt11char_traitsIcESaIcEEE(ptr noundef nonnull align 8 dereferenceable(16) %ref.tmp3, ptr noundef nonnull align 8 dereferenceable(32) %ref.tmp4)
          to label %invoke.cont7 unwind label %lpad6

invoke.cont7:                                     ; preds = %invoke.cont5
  call void @_ZNSt7__cxx1112basic_stringIcSt11char_traitsIcESaIcEED1Ev(ptr noundef nonnull align 8 dereferenceable(32) %ref.tmp4) #24
  call void @_ZN4absl12lts_2023080212log_internal15LogMessageFatalD1Ev(ptr noundef nonnull align 8 dereferenceable(16) %ref.tmp3) #29
  unreachable

lpad:                                             ; preds = %if.else
  %1 = landingpad { ptr, i32 }
          cleanup
  br label %ehcleanup

lpad6:                                            ; preds = %invoke.cont5
  %2 = landingpad { ptr, i32 }
          cleanup
  call void @_ZNSt7__cxx1112basic_stringIcSt11char_traitsIcESaIcEED1Ev(ptr noundef nonnull align 8 dereferenceable(32) %ref.tmp4) #24
  br label %ehcleanup

ehcleanup:                                        ; preds = %lpad6, %lpad
  call void @_ZN4absl12lts_2023080212log_internal15LogMessageFatalD1Ev(ptr noundef nonnull align 8 dereferenceable(16) %ref.tmp3) #29
  unreachable

if.end10:                                         ; preds = %entry
  ret i1 %cond
}